target datalayout = "e-m:e-p270:32:32-p271:32:32-p272:64:64-i64:64-i128:128-f80:128-n8:16:32:64-S128"
target triple = "x86_64-pc-linux-gnu"

%struct._packet_info = type { ptr, ptr, i32, i32, %struct.nstime_t, %struct.nstime_t, %struct.nstime_t, i8, ptr, ptr, ptr, ptr, %struct._address, %struct._address, %struct._address, %struct._address, %struct._address, %struct._address, i32, ptr, i8, [3 x i8], %struct.anon, i32, i32, i32, i32, ptr, i8, ptr, ptr, i16, i16, i32, i32, i16, i32, i32, ptr, ptr, ptr, i8, i8, i16, i16, i16, i32, i16, i16, ptr, ptr, ptr, ptr, ptr, i32, i32 }
%struct.nstime_t = type { i64, i32 }
%struct._address = type { i32, i32, ptr, ptr }
%struct.anon = type { i8, [3 x i8] }
%struct._proto_node = type { ptr, ptr, ptr, ptr, ptr, ptr, ptr }
%struct.field_info = type { ptr, i32, i32, i32, i32, i32, i32, ptr, ptr, ptr, i32, i32 }
%struct.anon.5 = type { i32 }

@hf_ipv6_slaac_mac = internal global i32 0, align 4

; Function Attrs: inlinehint nounwind null_pointer_is_valid sspstrong uwtable
define internal void @proto_item_set_hidden(ptr noundef %0) #7 {
  %2 = alloca ptr, align 8
  store ptr %0, ptr %2, align 8
  %3 = load ptr, ptr %2, align 8
  %4 = icmp ne ptr %3, null
  br i1 %4, label %5, label %24

5:                                                ; preds = %1
  br label %6

6:                                                ; preds = %5
  %7 = load ptr, ptr %2, align 8
  %8 = getelementptr inbounds nuw %struct._proto_node, ptr %7, i32 0, i32 5
  %9 = load ptr, ptr %8, align 8
  %10 = icmp ne ptr %9, null
  br i1 %10, label %11, label %22

11:                                               ; preds = %6
  %12 = load ptr, ptr %2, align 8
  %13 = getelementptr inbounds nuw %struct._proto_node, ptr %12, i32 0, i32 5
  %14 = load ptr, ptr %13, align 8
  %15 = getelementptr inbounds nuw %struct.field_info, ptr %14, i32 0, i32 6
  %16 = load i32, ptr %15, align 4
  %17 = or i32 %16, 1
  %18 = load ptr, ptr %2, align 8
  %19 = getelementptr inbounds nuw %struct._proto_node, ptr %18, i32 0, i32 5
  %20 = load ptr, ptr %19, align 8
  %21 = getelementptr inbounds nuw %struct.field_info, ptr %20, i32 0, i32 6
  store i32 %17, ptr %21, align 4
  br label %22

22:                                               ; preds = %11, %6
  br label %23

23:                                               ; preds = %22
  br label %24

24:                                               ; preds = %23, %1
  ret void
}

; Function Attrs: inlinehint nounwind null_pointer_is_valid sspstrong uwtable
define internal void @proto_item_set_generated(ptr noundef %0) #7 {
  %2 = alloca ptr, align 8
  store ptr %0, ptr %2, align 8
  %3 = load ptr, ptr %2, align 8
  %4 = icmp ne ptr %3, null
  br i1 %4, label %5, label %24

5:                                                ; preds = %1
  br label %6

6:                                                ; preds = %5
  %7 = load ptr, ptr %2, align 8
  %8 = getelementptr inbounds nuw %struct._proto_node, ptr %7, i32 0, i32 5
  %9 = load ptr, ptr %8, align 8
  %10 = icmp ne ptr %9, null
  br i1 %10, label %11, label %22

11:                                               ; preds = %6
  %12 = load ptr, ptr %2, align 8
  %13 = getelementptr inbounds nuw %struct._proto_node, ptr %12, i32 0, i32 5
  %14 = load ptr, ptr %13, align 8
  %15 = getelementptr inbounds nuw %struct.field_info, ptr %14, i32 0, i32 6
  %16 = load i32, ptr %15, align 4
  %17 = or i32 %16, 2
  %18 = load ptr, ptr %2, align 8
  %19 = getelementptr inbounds nuw %struct._proto_node, ptr %18, i32 0, i32 5
  %20 = load ptr, ptr %19, align 8
  %21 = getelementptr inbounds nuw %struct.field_info, ptr %20, i32 0, i32 6
  store i32 %17, ptr %21, align 4
  br label %22

22:                                               ; preds = %11, %6
  br label %23

23:                                               ; preds = %22
  br label %24

24:                                               ; preds = %23, %1
  ret void
}

; Function Attrs: null_pointer_is_valid sspstrong uwtable
define internal void @add_ipv6_address_slaac(ptr noundef %0, ptr noundef %1, ptr noundef %2, i32 noundef %3, i32 noundef %4) #0 {
  %6 = alloca ptr, align 8
  %7 = alloca ptr, align 8
  %8 = alloca ptr, align 8
  %9 = alloca i32, align 4
  %10 = alloca i32, align 4
  %11 = alloca ptr, align 8
  %12 = alloca [2 x %struct.anon.5], align 4
  %13 = alloca ptr, align 8
  %14 = alloca i32, align 4
  store ptr %0, ptr %6, align 8
  store ptr %1, ptr %7, align 8
  store ptr %2, ptr %8, align 8
  store i32 %3, ptr %9, align 4
  store i32 %4, ptr %10, align 4
  %15 = load ptr, ptr %8, align 8
  %16 = load i32, ptr %9, align 4
  %17 = add i32 %16, 8
  %18 = call zeroext i8 @tvb_get_uint8(ptr noundef %15, i32 noundef %17)
  %19 = zext i8 %18 to i32
  %20 = and i32 %19, 2
  %21 = icmp ne i32 %20, 0
  br i1 %21, label %22, label %29

22:                                               ; preds = %5
  %23 = load ptr, ptr %8, align 8
  %24 = load i32, ptr %9, align 4
  %25 = add i32 %24, 11
  %26 = call zeroext i16 @tvb_get_ntohs(ptr noundef %23, i32 noundef %25)
  %27 = zext i16 %26 to i32
  %28 = icmp eq i32 %27, 65534
  br i1 %28, label %30, label %29

29:                                               ; preds = %22, %5
  br label %86

30:                                               ; preds = %22
  call void @llvm.lifetime.start.p0(i64 8, ptr %11) #15
  %31 = load ptr, ptr %6, align 8
  %32 = getelementptr inbounds nuw %struct._packet_info, ptr %31, i32 0, i32 51
  %33 = load ptr, ptr %32, align 8
  %34 = call noalias ptr @wmem_alloc(ptr noundef %33, i64 noundef 6) #16
  store ptr %34, ptr %11, align 8
  %35 = load ptr, ptr %8, align 8
  %36 = load ptr, ptr %11, align 8
  %37 = load i32, ptr %9, align 4
  %38 = add i32 %37, 8
  %39 = call ptr @tvb_memcpy(ptr noundef %35, ptr noundef %36, i32 noundef %38, i64 noundef 3)
  %40 = load ptr, ptr %8, align 8
  %41 = load ptr, ptr %11, align 8
  %42 = getelementptr i8, ptr %41, i64 3
  %43 = load i32, ptr %9, align 4
  %44 = add i32 %43, 13
  %45 = call ptr @tvb_memcpy(ptr noundef %40, ptr noundef %42, i32 noundef %44, i64 noundef 3)
  %46 = load ptr, ptr %11, align 8
  %47 = getelementptr i8, ptr %46, i64 0
  %48 = load i8, ptr %47, align 1
  %49 = zext i8 %48 to i32
  %50 = and i32 %49, -3
  %51 = trunc i32 %50 to i8
  store i8 %51, ptr %47, align 1
  call void @llvm.lifetime.start.p0(i64 8, ptr %12) #15
  %52 = getelementptr inbounds nuw %struct.anon.5, ptr %12, i32 0, i32 0
  %53 = load i32, ptr %10, align 4
  store i32 %53, ptr %52, align 4
  %54 = getelementptr inbounds %struct.anon.5, ptr %12, i64 1
  %55 = getelementptr inbounds nuw %struct.anon.5, ptr %54, i32 0, i32 0
  %56 = load i32, ptr @hf_ipv6_slaac_mac, align 4
  store i32 %56, ptr %55, align 4
  call void @llvm.lifetime.start.p0(i64 8, ptr %13) #15
  call void @llvm.lifetime.start.p0(i64 4, ptr %14) #15
  store i32 0, ptr %14, align 4
  br label %57

57:                                               ; preds = %82, %30
  %58 = load i32, ptr %14, align 4
  %59 = icmp slt i32 %58, 2
  br i1 %59, label %61, label %60

60:                                               ; preds = %57
  call void @llvm.lifetime.end.p0(i64 4, ptr %14) #15
  br label %85

61:                                               ; preds = %57
  %62 = load ptr, ptr %7, align 8
  %63 = load i32, ptr %14, align 4
  %64 = sext i32 %63 to i64
  %65 = getelementptr [2 x %struct.anon.5], ptr %12, i64 0, i64 %64
  %66 = getelementptr inbounds nuw %struct.anon.5, ptr %65, i32 0, i32 0
  %67 = load i32, ptr %66, align 4
  %68 = load ptr, ptr %8, align 8
  %69 = load i32, ptr %9, align 4
  %70 = add i32 %69, 8
  %71 = load ptr, ptr %11, align 8
  %72 = call ptr @proto_tree_add_ether(ptr noundef %62, i32 noundef %67, ptr noundef %68, i32 noundef %70, i32 noundef 8, ptr noundef %71)
  store ptr %72, ptr %13, align 8
  br label %73

73:                                               ; preds = %61
  %74 = load ptr, ptr %13, align 8
  call void @proto_item_set_generated(ptr noundef %74)
  %75 = load i32, ptr %14, align 4
  %76 = icmp sgt i32 %75, 0
  br i1 %76, label %77, label %79

77:                                               ; preds = %73
  %78 = load ptr, ptr %13, align 8
  call void @proto_item_set_hidden(ptr noundef %78)
  br label %79

79:                                               ; preds = %77, %73
  br label %80

80:                                               ; preds = %79
  br label %81

81:                                               ; preds = %80
  br label %82

82:                                               ; preds = %81
  %83 = load i32, ptr %14, align 4
  %84 = add i32 %83, 1
  store i32 %84, ptr %14, align 4
  br label %57, !llvm.loop !20

85:                                               ; preds = %60
  call void @llvm.lifetime.end.p0(i64 8, ptr %13) #15
  call void @llvm.lifetime.end.p0(i64 8, ptr %12) #15
  call void @llvm.lifetime.end.p0(i64 8, ptr %11) #15
  br label %86

86:                                               ; preds = %85, %29
  ret void
}