; Function Attrs: null_pointer_is_valid sspstrong uwtable
define internal fastcc void @add_ipv6_address_slaac(ptr noundef readonly captures(none) %0, ptr noundef %1, ptr noundef %2, i32 noundef range(i32 8, 25) %3, i32 noundef %4) unnamed_addr #0 {
  %6 = add nuw nsw i32 %3, 8
  %7 = tail call zeroext i8 @tvb_get_uint8(ptr noundef %2, i32 noundef %6)
  %8 = and i8 %7, 2
  %.not = icmp eq i8 %8, 0
  br i1 %.not, label %proto_item_set_hidden.exit.thread, label %9

9:                                                ; preds = %5
  %10 = add nuw nsw i32 %3, 11
  %11 = tail call zeroext i16 @tvb_get_ntohs(ptr noundef %2, i32 noundef %10)
  %12 = icmp eq i16 %11, -2
  br i1 %12, label %13, label %proto_item_set_hidden.exit.thread

13:                                               ; preds = %9
  %14 = getelementptr inbounds nuw i8, ptr %0, i64 408
  %15 = load ptr, ptr %14, align 8
  %16 = tail call noalias dereferenceable_or_null(6) ptr @wmem_alloc(ptr noundef %15, i64 noundef 6) #15
  %17 = tail call ptr @tvb_memcpy(ptr noundef %2, ptr noundef %16, i32 noundef %6, i64 noundef 3)
  %18 = getelementptr i8, ptr %16, i64 3
  %19 = add nuw nsw i32 %3, 13
  %20 = tail call ptr @tvb_memcpy(ptr noundef %2, ptr noundef %18, i32 noundef %19, i64 noundef 3)
  %21 = load i8, ptr %16, align 1
  %22 = and i8 %21, -3
  store i8 %22, ptr %16, align 1
  %23 = load i32, ptr @hf_ipv6_slaac_mac, align 4
  br label %.backedge

.backedge:                                        ; preds = %.backedge.backedge, %13
  %switch = phi i1 [ false, %13 ], [ true, %.backedge.backedge ]
  %24 = phi i1 [ true, %13 ], [ false, %.backedge.backedge ]
  %indvars.iv.sroa.phi.sroa.speculated = phi i32 [ %4, %13 ], [ %23, %.backedge.backedge ]
  %25 = tail call ptr @proto_tree_add_ether(ptr noundef %1, i32 noundef %indvars.iv.sroa.phi.sroa.speculated, ptr noundef %2, i32 noundef %6, i32 noundef 8, ptr noundef %16)
  %.not.i = icmp eq ptr %25, null
  br i1 %.not.i, label %proto_item_set_hidden.exit, label %26

26:                                               ; preds = %.backedge
  %27 = getelementptr inbounds nuw i8, ptr %25, i64 40
  %28 = load ptr, ptr %27, align 8
  %.not5.i = icmp eq ptr %28, null
  br i1 %.not5.i, label %proto_item_set_generated.exit, label %29

29:                                               ; preds = %26
  %30 = getelementptr inbounds nuw i8, ptr %28, i64 28
  %31 = load i32, ptr %30, align 4
  %32 = or i32 %31, 2
  store i32 %32, ptr %30, align 4
  br label %proto_item_set_generated.exit

proto_item_set_generated.exit:                    ; preds = %26, %29
  br i1 %switch, label %33, label %.backedge.backedge

33:                                               ; preds = %proto_item_set_generated.exit
  %34 = getelementptr inbounds nuw i8, ptr %25, i64 40
  %35 = load ptr, ptr %34, align 8
  %.not5.i23 = icmp eq ptr %35, null
  br i1 %.not5.i23, label %proto_item_set_hidden.exit.thread, label %36

36:                                               ; preds = %33
  %37 = getelementptr inbounds nuw i8, ptr %35, i64 28
  %38 = load i32, ptr %37, align 4
  %39 = or i32 %38, 1
  store i32 %39, ptr %37, align 4
  br label %proto_item_set_hidden.exit.thread

proto_item_set_hidden.exit:                       ; preds = %.backedge
  br i1 %24, label %.backedge.backedge, label %proto_item_set_hidden.exit.thread

.backedge.backedge:                               ; preds = %proto_item_set_hidden.exit, %proto_item_set_generated.exit
  br label %.backedge, !llvm.loop !22

proto_item_set_hidden.exit.thread:                ; preds = %36, %33, %proto_item_set_hidden.exit, %5, %9
  ret void
}